target datalayout = "e-m:e-p270:32:32-p271:32:32-p272:64:64-i64:64-i128:128-f80:128-n8:16:32:64-S128"
target triple = "x86_64-pc-linux-gnu"

%struct.jit_State = type { %struct.GCtrace, ptr, ptr, ptr, ptr, ptr, ptr, i32, i32, i32, i8, i8, %struct.IRType1, i8, %struct.FoldState, ptr, i32, i32, i32, i32, i32, i32, i32, [1 x i32], [5 x %union.TValue], [3 x %union.TValue], ptr, i32, i32, i32, i32, ptr, ptr, i32, i32, i8, ptr, i32, i32, i16, [101 x i16], [258 x i32], [15 x i32], [16 x ptr], [64 x %struct.HotPenalty], i32, [16 x %struct.BPropEntry], i32, %struct.ScEvEntry, ptr, i32, i32, i32, ptr, i32, i32, ptr, ptr, ptr, i64, i64, %union.TValue, ptr, i32, i32 }
%struct.GCtrace = type { %struct.GCRef, i8, i8, i16, i32, i32, %struct.GCRef, ptr, i32, i32, ptr, ptr, %struct.GCRef, %struct.MRef, i32, i32, ptr, i32, i16, i16, i16, i16, i16, i16, i16, i8, i8, i8, i8 }
%struct.GCRef = type { i64 }
%struct.MRef = type { i64 }
%struct.IRType1 = type { i8 }
%struct.FoldState = type { %union.IRIns, [2 x %union.IRIns], [2 x %union.IRIns] }
%union.IRIns = type { %struct.GCRef }
%struct.HotPenalty = type { %struct.MRef, i16, i16 }
%struct.BPropEntry = type { i16, i16, i32 }
%struct.ScEvEntry = type { %struct.MRef, i16, i16, i16, i16, %struct.IRType1, i8 }
%union.TValue = type { i64 }
%struct.anon.1 = type { i16, i16, i16, i16 }

; Function Attrs: alwaysinline nounwind uwtable
define internal void @lj_ir_set_(ptr noundef %0, i16 noundef zeroext %1, i16 noundef zeroext %2, i16 noundef zeroext %3) #3 {
  %5 = alloca ptr, align 8
  %6 = alloca i16, align 2
  %7 = alloca i16, align 2
  %8 = alloca i16, align 2
  store ptr %0, ptr %5, align 8, !tbaa !4
  store i16 %1, ptr %6, align 2, !tbaa !13
  store i16 %2, ptr %7, align 2, !tbaa !13
  store i16 %3, ptr %8, align 2, !tbaa !13
  %9 = load i16, ptr %6, align 2, !tbaa !13
  %10 = load ptr, ptr %5, align 8, !tbaa !4
  %11 = getelementptr inbounds nuw %struct.jit_State, ptr %10, i32 0, i32 14
  %12 = getelementptr inbounds nuw %struct.FoldState, ptr %11, i32 0, i32 0
  %13 = getelementptr inbounds nuw %struct.anon.1, ptr %12, i32 0, i32 2
  store i16 %9, ptr %13, align 4, !tbaa !15
  %14 = load i16, ptr %7, align 2, !tbaa !13
  %15 = load ptr, ptr %5, align 8, !tbaa !4
  %16 = getelementptr inbounds nuw %struct.jit_State, ptr %15, i32 0, i32 14
  %17 = getelementptr inbounds nuw %struct.FoldState, ptr %16, i32 0, i32 0
  %18 = getelementptr inbounds nuw %struct.anon.1, ptr %17, i32 0, i32 0
  store i16 %14, ptr %18, align 8, !tbaa !15
  %19 = load i16, ptr %8, align 2, !tbaa !13
  %20 = load ptr, ptr %5, align 8, !tbaa !4
  %21 = getelementptr inbounds nuw %struct.jit_State, ptr %20, i32 0, i32 14
  %22 = getelementptr inbounds nuw %struct.FoldState, ptr %21, i32 0, i32 0
  %23 = getelementptr inbounds nuw %struct.anon.1, ptr %22, i32 0, i32 1
  store i16 %19, ptr %23, align 2, !tbaa !15
  ret void
}

; Function Attrs: nounwind uwtable
define hidden i32 @lj_record_objcmp(ptr noundef %0, i32 noundef %1, i32 noundef %2, ptr noundef %3, ptr noundef %4) #0 {
  %6 = alloca i32, align 4
  %7 = alloca ptr, align 8
  %8 = alloca i32, align 4
  %9 = alloca i32, align 4
  %10 = alloca ptr, align 8
  %11 = alloca ptr, align 8
  %12 = alloca i32, align 4
  %13 = alloca i32, align 4
  %14 = alloca i32, align 4
  %15 = alloca i32, align 4
  store ptr %0, ptr %7, align 8, !tbaa !4
  store i32 %1, ptr %8, align 4, !tbaa !9
  store i32 %2, ptr %9, align 4, !tbaa !9
  store ptr %3, ptr %10, align 8, !tbaa !11
  store ptr %4, ptr %11, align 8, !tbaa !11
  call void @llvm.lifetime.start.p0(i64 4, ptr %12) #9
  %16 = load ptr, ptr %10, align 8, !tbaa !11
  %17 = load ptr, ptr %11, align 8, !tbaa !11
  %18 = call i32 @lj_obj_equal(ptr noundef %16, ptr noundef %17)
  %19 = icmp ne i32 %18, 0
  %20 = xor i1 %19, true
  %21 = zext i1 %20 to i32
  store i32 %21, ptr %12, align 4, !tbaa !9
  %22 = load i32, ptr %8, align 4, !tbaa !9
  %23 = load i32, ptr %9, align 4, !tbaa !9
  %24 = or i32 %22, %23
  %25 = trunc i32 %24 to i16
  %26 = zext i16 %25 to i32
  %27 = icmp slt i32 %26, 32768
  br i1 %27, label %102, label %28

28:                                               ; preds = %5
  call void @llvm.lifetime.start.p0(i64 4, ptr %13) #9
  %29 = load i32, ptr %8, align 4, !tbaa !9
  %30 = lshr i32 %29, 24
  %31 = and i32 %30, 31
  %32 = sub i32 %31, 15
  %33 = icmp ule i32 %32, 4
  br i1 %33, label %34, label %35

34:                                               ; preds = %28
  br label %39

35:                                               ; preds = %28
  %36 = load i32, ptr %8, align 4, !tbaa !9
  %37 = lshr i32 %36, 24
  %38 = and i32 %37, 31
  br label %39

39:                                               ; preds = %35, %34
  %40 = phi i32 [ 19, %34 ], [ %38, %35 ]
  store i32 %40, ptr %13, align 4, !tbaa !9
  call void @llvm.lifetime.start.p0(i64 4, ptr %14) #9
  %41 = load i32, ptr %9, align 4, !tbaa !9
  %42 = lshr i32 %41, 24
  %43 = and i32 %42, 31
  %44 = sub i32 %43, 15
  %45 = icmp ule i32 %44, 4
  br i1 %45, label %46, label %47

46:                                               ; preds = %39
  br label %51

47:                                               ; preds = %39
  %48 = load i32, ptr %9, align 4, !tbaa !9
  %49 = lshr i32 %48, 24
  %50 = and i32 %49, 31
  br label %51

51:                                               ; preds = %47, %46
  %52 = phi i32 [ 19, %46 ], [ %50, %47 ]
  store i32 %52, ptr %14, align 4, !tbaa !9
  %53 = load i32, ptr %13, align 4, !tbaa !9
  %54 = load i32, ptr %14, align 4, !tbaa !9
  %55 = icmp ne i32 %53, %54
  br i1 %55, label %56, label %83

56:                                               ; preds = %51
  %57 = load i32, ptr %13, align 4, !tbaa !9
  %58 = icmp eq i32 %57, 19
  br i1 %58, label %59, label %68

59:                                               ; preds = %56
  %60 = load i32, ptr %14, align 4, !tbaa !9
  %61 = icmp eq i32 %60, 14
  br i1 %61, label %62, label %68

62:                                               ; preds = %59
  %63 = load ptr, ptr %7, align 8, !tbaa !4
  %64 = load i32, ptr %8, align 4, !tbaa !9
  %65 = trunc i32 %64 to i16
  call void @lj_ir_set_(ptr noundef %63, i16 noundef zeroext 23310, i16 noundef zeroext %65, i16 noundef zeroext 467)
  %66 = load ptr, ptr %7, align 8, !tbaa !4
  %67 = call i32 @lj_opt_fold(ptr noundef %66)
  store i32 %67, ptr %8, align 4, !tbaa !9
  store i32 14, ptr %13, align 4, !tbaa !9
  br label %82

68:                                               ; preds = %59, %56
  %69 = load i32, ptr %13, align 4, !tbaa !9
  %70 = icmp eq i32 %69, 14
  br i1 %70, label %71, label %80

71:                                               ; preds = %68
  %72 = load i32, ptr %14, align 4, !tbaa !9
  %73 = icmp eq i32 %72, 19
  br i1 %73, label %74, label %80

74:                                               ; preds = %71
  %75 = load ptr, ptr %7, align 8, !tbaa !4
  %76 = load i32, ptr %9, align 4, !tbaa !9
  %77 = trunc i32 %76 to i16
  call void @lj_ir_set_(ptr noundef %75, i16 noundef zeroext 23310, i16 noundef zeroext %77, i16 noundef zeroext 467)
  %78 = load ptr, ptr %7, align 8, !tbaa !4
  %79 = call i32 @lj_opt_fold(ptr noundef %78)
  store i32 %79, ptr %9, align 4, !tbaa !9
  br label %81

80:                                               ; preds = %71, %68
  store i32 2, ptr %6, align 4
  store i32 1, ptr %15, align 4
  br label %99

81:                                               ; preds = %74
  br label %82

82:                                               ; preds = %81, %62
  br label %83

83:                                               ; preds = %82, %51
  %84 = load ptr, ptr %7, align 8, !tbaa !4
  %85 = load i32, ptr %12, align 4, !tbaa !9
  %86 = icmp ne i32 %85, 0
  %87 = select i1 %86, i32 9, i32 8
  %88 = shl i32 %87, 8
  %89 = load i32, ptr %13, align 4, !tbaa !9
  %90 = or i32 128, %89
  %91 = or i32 %88, %90
  %92 = trunc i32 %91 to i16
  %93 = load i32, ptr %8, align 4, !tbaa !9
  %94 = trunc i32 %93 to i16
  %95 = load i32, ptr %9, align 4, !tbaa !9
  %96 = trunc i32 %95 to i16
  call void @lj_ir_set_(ptr noundef %84, i16 noundef zeroext %92, i16 noundef zeroext %94, i16 noundef zeroext %96)
  %97 = load ptr, ptr %7, align 8, !tbaa !4
  %98 = call i32 @lj_opt_fold(ptr noundef %97)
  store i32 0, ptr %15, align 4
  br label %99

99:                                               ; preds = %83, %80
  call void @llvm.lifetime.end.p0(i64 4, ptr %14) #9
  call void @llvm.lifetime.end.p0(i64 4, ptr %13) #9
  %100 = load i32, ptr %15, align 4
  switch i32 %100, label %104 [
    i32 0, label %101
  ]

101:                                              ; preds = %99
  br label %102

102:                                              ; preds = %101, %5
  %103 = load i32, ptr %12, align 4, !tbaa !9
  store i32 %103, ptr %6, align 4
  store i32 1, ptr %15, align 4
  br label %104

104:                                              ; preds = %102, %99
  call void @llvm.lifetime.end.p0(i64 4, ptr %12) #9
  %105 = load i32, ptr %6, align 4
  ret i32 %105
}