; Function Attrs: nounwind uwtable
define hidden range(i32 0, 3) i32 @lj_record_objcmp(ptr noundef %0, i32 noundef %1, i32 noundef %2, ptr noundef %3, ptr noundef %4) local_unnamed_addr #0 {
  %6 = tail call i32 @lj_obj_equal(ptr noundef %3, ptr noundef %4) #8
  %.not = icmp eq i32 %6, 0
  %7 = zext i1 %.not to i32
  %8 = or i32 %2, %1
  %9 = and i32 %8, 32768
  %.not38.not = icmp eq i32 %9, 0
  br i1 %.not38.not, label %48, label %10

10:                                               ; preds = %5
  %11 = lshr i32 %1, 24
  %12 = and i32 %11, 31
  %13 = add nsw i32 %12, -15
  %14 = icmp ult i32 %13, 5
  %15 = select i1 %14, i32 19, i32 %12
  %16 = lshr i32 %2, 24
  %17 = and i32 %16, 31
  %18 = add nsw i32 %17, -15
  %19 = icmp ult i32 %18, 5
  %20 = select i1 %19, i32 19, i32 %17
  %.not39 = icmp eq i32 %15, %20
  br i1 %.not39, label %.critedge, label %21

21:                                               ; preds = %10
  %22 = icmp eq i32 %15, 19
  %23 = icmp eq i32 %20, 14
  %or.cond = and i1 %22, %23
  br i1 %or.cond, label %24, label %30

24:                                               ; preds = %21
  %25 = trunc i32 %1 to i16
  %26 = getelementptr inbounds nuw i8, ptr %0, i64 184
  %27 = getelementptr inbounds nuw i8, ptr %0, i64 188
  store i16 23310, ptr %27, align 4, !tbaa !4
  store i16 %25, ptr %26, align 8, !tbaa !4
  %28 = getelementptr inbounds nuw i8, ptr %0, i64 186
  store i16 467, ptr %28, align 2, !tbaa !4
  %29 = tail call i32 @lj_opt_fold(ptr noundef %0) #8
  br label %.critedge

30:                                               ; preds = %21
  %31 = icmp eq i32 %15, 14
  %32 = icmp eq i32 %20, 19
  %or.cond3 = and i1 %31, %32
  br i1 %or.cond3, label %33, label %48

33:                                               ; preds = %30
  %34 = trunc i32 %2 to i16
  %35 = getelementptr inbounds nuw i8, ptr %0, i64 184
  %36 = getelementptr inbounds nuw i8, ptr %0, i64 188
  store i16 23310, ptr %36, align 4, !tbaa !4
  store i16 %34, ptr %35, align 8, !tbaa !4
  %37 = getelementptr inbounds nuw i8, ptr %0, i64 186
  store i16 467, ptr %37, align 2, !tbaa !4
  %38 = tail call i32 @lj_opt_fold(ptr noundef %0) #8
  br label %.critedge

.critedge:                                        ; preds = %24, %33, %10
  %.034 = phi i32 [ %2, %24 ], [ %38, %33 ], [ %2, %10 ]
  %.033 = phi i32 [ %29, %24 ], [ %1, %33 ], [ %1, %10 ]
  %.032 = phi i32 [ 14, %24 ], [ 14, %33 ], [ %15, %10 ]
  %39 = select i1 %.not, i32 2432, i32 2176
  %40 = or i32 %39, %.032
  %41 = trunc nuw nsw i32 %40 to i16
  %42 = trunc i32 %.033 to i16
  %43 = trunc i32 %.034 to i16
  %44 = getelementptr inbounds nuw i8, ptr %0, i64 184
  %45 = getelementptr inbounds nuw i8, ptr %0, i64 188
  store i16 %41, ptr %45, align 4, !tbaa !4
  store i16 %42, ptr %44, align 8, !tbaa !4
  %46 = getelementptr inbounds nuw i8, ptr %0, i64 186
  store i16 %43, ptr %46, align 2, !tbaa !4
  %47 = tail call i32 @lj_opt_fold(ptr noundef %0) #8
  br label %48

48:                                               ; preds = %5, %.critedge, %30
  %.1 = phi i32 [ 2, %30 ], [ %7, %.critedge ], [ %7, %5 ]
  ret i32 %.1
}